; Function Attrs: mustprogress nofree norecurse nosync nounwind willreturn memory(read, argmem: readwrite, inaccessiblemem: none) uwtable
define hidden void @_glfwGetCursorPosNull(ptr noundef readonly captures(none) %0, ptr noundef writeonly captures(address_is_null) %1, ptr noundef writeonly captures(address_is_null) %2) local_unnamed_addr #9 {
  %.not = icmp eq ptr %1, null
  br i1 %.not, label %10, label %4

4:                                                ; preds = %3
  %5 = load i32, ptr getelementptr inbounds nuw (i8, ptr @_glfw, i64 142744), align 8, !tbaa !172
  %6 = getelementptr inbounds nuw i8, ptr %0, i64 3368
  %7 = load i32, ptr %6, align 8, !tbaa !58
  %8 = sub nsw i32 %5, %7
  %9 = sitofp i32 %8 to double
  store double %9, ptr %1, align 8, !tbaa !175
  br label %10

10:                                               ; preds = %4, %3
  %.not7 = icmp eq ptr %2, null
  br i1 %.not7, label %17, label %11

11:                                               ; preds = %10
  %12 = load i32, ptr getelementptr inbounds nuw (i8, ptr @_glfw, i64 142748), align 4, !tbaa !173
  %13 = getelementptr inbounds nuw i8, ptr %0, i64 3372
  %14 = load i32, ptr %13, align 4, !tbaa !59
  %15 = sub nsw i32 %12, %14
  %16 = sitofp i32 %15 to double
  store double %16, ptr %2, align 8, !tbaa !175
  br label %17

17:                                               ; preds = %11, %10
  ret void
}